Certificate:
    Data:
        Version: 3 (0x2)
        Serial Number:
            a0:5f:9a:15:df:10:03:6c:2b:7a:e7:cd:1a:94:12:fb
    Signature Algorithm: sha256WithRSAEncryption
        Issuer: CN=matooa-ca
        Validity
            Not Before: Mar 18 10:39:07 2019 GMT
            Not After : Mar  2 10:39:07 2022 GMT
        Subject: CN=matooa-server
        Subject Public Key Info:
            Public Key Algorithm: rsaEncryption
                Public-Key: (2048 bit)
                Modulus:
                    00:dc:f4:ed:db:31:c1:fb:4c:c4:82:1b:9d:4a:00:
                    dd:4c:55:c6:28:be:b3:1b:b9:d6:da:72:28:00:d9:
                    13:38:1a:84:0f:c1:5b:f9:7f:29:26:c8:51:d6:5b:
                    f2:e3:ee:f0:36:45:39:62:ea:61:ff:f2:fe:f7:b7:
                    49:a7:92:7a:9c:ed:8c:5f:c4:e0:7d:fc:25:3c:5b:
                    d9:b2:00:99:72:4a:39:ab:d8:9b:3e:3d:5b:d7:71:
                    e8:65:11:4f:43:38:7f:0b:44:0d:d4:aa:73:82:be:
                    ea:f1:49:4a:2b:4f:f0:30:19:58:a2:28:ba:e6:c0:
                    5c:d0:97:29:c2:b4:51:30:d4:f2:82:df:7d:fb:3b:
                    0e:40:97:ba:ff:26:70:a3:4b:43:70:8e:27:eb:94:
                    35:28:81:41:2c:95:36:5d:e9:50:69:bc:ce:c3:30:
                    ee:fa:4d:96:69:e9:95:a9:7b:ca:36:05:f6:78:8b:
                    a4:06:d8:49:d1:66:d5:fb:32:15:47:5c:5c:35:85:
                    a9:9b:cc:60:14:55:b5:c0:fa:65:85:75:6c:be:cd:
                    77:de:f8:05:bf:33:4f:25:c4:ab:15:10:b8:c4:33:
                    29:31:4e:8a:5e:2e:6b:94:69:1d:f4:b4:ea:2f:ab:
                    15:fd:68:ef:6c:18:a6:1a:2f:4e:54:25:39:13:88:
                    03:79
                Exponent: 65537 (0x10001)
        X509v3 extensions:
            X509v3 Basic Constraints: 
                CA:FALSE
            X509v3 Subject Key Identifier: 
                45:6B:50:69:CA:18:EF:0C:C1:CC:75:8B:05:1F:5C:ED:30:D8:8C:C7
            X509v3 Authority Key Identifier: 
                keyid:BC:31:63:1F:3C:F0:BB:AE:BD:31:34:A0:69:96:69:A1:32:A4:B4:2A
                DirName:/CN=matooa-ca
                serial:E1:16:41:B0:A7:5E:0B:11

            X509v3 Extended Key Usage: 
                TLS Web Server Authentication
            X509v3 Key Usage: 
                Digital Signature, Key Encipherment
            X509v3 Subject Alternative Name: 
                DNS:matooa-server
    Signature Algorithm: sha256WithRSAEncryption
         19:3e:55:fc:9d:81:83:33:3b:64:20:79:1f:af:8d:ea:06:7a:
         4b:29:a1:f6:db:9a:b2:53:88:4b:55:d2:25:e9:c0:91:3d:b0:
         4a:f5:be:20:9f:f4:0d:1e:6c:fa:80:1e:43:f0:75:0b:91:c3:
         94:fc:85:ac:49:f0:d0:96:e3:5c:75:42:68:b5:81:02:37:35:
         10:11:3f:24:d7:b4:07:3b:3e:fc:0f:8e:02:8c:f7:59:ed:b7:
         70:aa:3c:42:9d:0c:39:ef:13:ca:8b:ab:f7:d9:78:fc:3f:fb:
         e0:9d:83:30:38:2c:1a:f9:b0:11:11:9a:e2:ef:57:e3:ec:d5:
         df:63:78:d9:dd:1c:12:94:1a:43:47:9b:82:34:df:90:17:6f:
         8c:a3:f2:63:a7:b6:cc:6b:ba:e7:09:91:33:0e:35:a0:58:78:
         0e:fd:d8:d4:08:59:2d:34:03:00:28:9a:be:8e:07:12:2d:4d:
         20:68:33:ca:ac:5c:9a:e8:99:5b:65:fc:a1:ed:e2:79:0f:6e:
         6b:1c:59:d7:ff:e3:08:76:6b:8b:9e:10:55:1b:7b:70:69:77:
         7d:73:2a:0b:0f:9a:94:1e:5a:17:c9:af:35:9b:12:16:fa:dd:
         11:46:8c:be:da:a1:51:a9:83:db:76:e6:a3:9f:72:fb:25:19:
         a4:30:fd:ed
-----BEGIN CERTIFICATE-----
MIIDZzCCAk+gAwIBAgIRAKBfmhXfEANsK3rnzRqUEvswDQYJKoZIhvcNAQELBQAw
FDESMBAGA1UEAwwJbWF0b29hLWNhMB4XDTE5MDMxODEwMzkwN1oXDTIyMDMwMjEw
MzkwN1owGDEWMBQGA1UEAwwNbWF0b29hLXNlcnZlcjCCASIwDQYJKoZIhvcNAQEB
BQADggEPADCCAQoCggEBANz07dsxwftMxIIbnUoA3UxVxii+sxu51tpyKADZEzga
hA/BW/l/KSbIUdZb8uPu8DZFOWLqYf/y/ve3SaeSepztjF/E4H38JTxb2bIAmXJK
OavYmz49W9dx6GURT0M4fwtEDdSqc4K+6vFJSitP8DAZWKIouubAXNCXKcK0UTDU
8oLfffs7DkCXuv8mcKNLQ3COJ+uUNSiBQSyVNl3pUGm8zsMw7vpNlmnplal7yjYF
9niLpAbYSdFm1fsyFUdcXDWFqZvMYBRVtcD6ZYV1bL7Nd974Bb8zTyXEqxUQuMQz
KTFOil4ua5RpHfS06i+rFf1o72wYphovTlQlOROIA3kCAwEAAaOBrzCBrDAJBgNV
HRMEAjAAMB0GA1UdDgQWBBRFa1BpyhjvDMHMdYsFH1ztMNiMxzBEBgNVHSMEPTA7
gBS8MWMfPPC7rr0xNKBplmmhMqS0KqEYpBYwFDESMBAGA1UEAwwJbWF0b29hLWNh
ggkA4RZBsKdeCxEwEwYDVR0lBAwwCgYIKwYBBQUHAwEwCwYDVR0PBAQDAgWgMBgG
A1UdEQQRMA+CDW1hdG9vYS1zZXJ2ZXIwDQYJKoZIhvcNAQELBQADggEBABk+Vfyd
gYMzO2QgeR+vjeoGekspofbbmrJTiEtV0iXpwJE9sEr1viCf9A0ebPqAHkPwdQuR
w5T8haxJ8NCW41x1Qmi1gQI3NRARPyTXtAc7PvwPjgKM91ntt3CqPEKdDDnvE8qL
q/fZePw/++CdgzA4LBr5sBERmuLvV+Ps1d9jeNndHBKUGkNHm4I035AXb4yj8mOn
tsxruucJkTMONaBYeA792NQIWS00AwAomr6OBxItTSBoM8qsXJromVtl/KHt4nkP
bmscWdf/4wh2a4ueEFUbe3Bpd31zKgsPmpQeWhfJrzWbEhb63RFGjL7aoVGpg9t2
5qOfcvslGaQw/e0=
-----END CERTIFICATE-----
